(i__main__
LogFile
p0
(dp1
S'_installed_files'
p2
(dp3
S'../../../CaloMon/x86_64-slc6-gcc49-opt/libCaloMon.so.debug'
p4
S'../../InstallArea/x86_64-slc6-gcc49-opt/lib/libCaloMon.so.debug'
p5
sS'../../../../../../../../../../cvmfs/atlas.cern.ch/repo/sw/software/x86_64-slc6-gcc49-opt/20.7.5/GAUDI/v26r2p1-lcg81c/GaudiPolicy/cmt/fragments/__init__.py'
p6
S'../../InstallArea/python/CaloMon/__init__.py'
p7
sS'../../../CaloMon/x86_64-slc6-gcc49-opt/libCaloMon.so'
p8
S'../../InstallArea/x86_64-slc6-gcc49-opt/lib/libCaloMon.so'
p9
sS'../../CaloMon/genConf/CaloMon'
p10
(dp11
S'../../../CaloMon/genConf/CaloMon/CaloMonConf.py'
p12
S'../../InstallArea/python/CaloMon/CaloMonConf.py'
p13
sssb.