(i__main__
LogFile
p0
(dp1
S'_installed_files'
p2
(dp3
S'../../../../../../cvmfs/atlas.cern.ch/repo/sw/software/x86_64-slc6-gcc48-opt/20.7.3/GAUDI/v25r3p4/GaudiPolicy/cmt/fragments/__init__.py'
p4
S'../../InstallArea/python/CaloMon/__init__.py'
p5
sS'../../../../../../../../cvmfs/atlas.cern.ch/repo/sw/software/x86_64-slc6-gcc48-opt/20.7.3/GAUDI/v25r3p4/GaudiPolicy/cmt/fragments/__init__.py'
p6
S'../../InstallArea/python/CaloMon/__init__.py'
p7
sS'../../../CaloMon/x86_64-slc6-gcc48-opt/libCaloMon.so'
p8
S'../../InstallArea/x86_64-slc6-gcc48-opt/lib/libCaloMon.so'
p9
sS'../../../CaloMon/x86_64-slc6-gcc48-opt/libCaloMon.so.debug'
p10
S'../../InstallArea/x86_64-slc6-gcc48-opt/lib/libCaloMon.so.debug'
p11
sS'../../CaloMon/genConf/CaloMon'
p12
(dp13
S'../../../CaloMon/genConf/CaloMon/CaloMonConf.py'
p14
S'../../InstallArea/python/CaloMon/CaloMonConf.py'
p15
sssb.