(i__main__
LogFile
p0
(dp1
S'_installed_files'
p2
(dp3
S'../../../CaloMon/x86_64-slc6-gcc47-opt/libCaloMon.so'
p4
S'../../InstallArea/x86_64-slc6-gcc47-opt/lib/libCaloMon.so'
p5
sS'../../../CaloMon/x86_64-slc6-gcc47-opt/libCaloMon.so.debug'
p6
S'../../InstallArea/x86_64-slc6-gcc47-opt/lib/libCaloMon.so.debug'
p7
sS'../../CaloMon/genConf/CaloMon'
p8
(dp9
S'../../../CaloMon/genConf/CaloMon/CaloMonConf.py'
p10
S'../../InstallArea/python/CaloMon/CaloMonConf.py'
p11
sssb.